target datalayout = "e-m:e-p270:32:32-p271:32:32-p272:64:64-i64:64-i128:128-f80:128-n8:16:32:64-S128"
target triple = "x86_64-pc-linux-gnu"

%struct.ssl_connection_st = type { %struct.ssl_st, ptr, i32, ptr, ptr, ptr, i32, ptr, i32, i32, i32, i32, %struct.OSSL_TIME, %struct.OSSL_TIME, %struct.ossl_statem_st, i32, ptr, ptr, i64, i64, i64, %struct.ossl_quic_tls_callbacks_st, ptr, ptr, %struct.anon, ptr, ptr, ptr, i32, ptr, %struct.ssl_dane_st, ptr, ptr, ptr, ptr, i32, [64 x i8], [64 x i8], [64 x i8], [64 x i8], [64 x i8], [64 x i8], [64 x i8], [64 x i8], [64 x i8], [64 x i8], [64 x i8], [64 x i8], ptr, [64 x i8], i64, i32, i64, [32 x i8], ptr, ptr, ptr, i64, ptr, [32 x i8], i64, i32, ptr, ptr, i32, i32, ptr, ptr, ptr, ptr, ptr, i64, ptr, ptr, i64, i32, i32, i32, i64, i32, i32, i64, i64, i64, %struct.anon.1, ptr, i32, ptr, ptr, ptr, i32, ptr, ptr, ptr, i32, i32, i32, i32, ptr, i64, i32, ptr, %struct.srp_ctx_st, ptr, %struct.record_layer_st, ptr, ptr, ptr, ptr, i64, i32, i32, i32, i64, i64, i64, ptr, ptr, ptr, ptr, ptr, i64, ptr, i64, ptr, i64 }
%struct.ssl_st = type { i32, ptr, ptr, ptr, %struct.CRYPTO_REF_COUNT, ptr, %struct.crypto_ex_data_st }
%struct.CRYPTO_REF_COUNT = type { i32 }
%struct.crypto_ex_data_st = type { ptr, ptr }
%struct.OSSL_TIME = type { i64 }
%struct.ossl_statem_st = type { i32, i32, i32, i32, i32, i32, i32, i32, i32, i32, i32, i32, i32, ptr, ptr, ptr, i8 }
%struct.ossl_quic_tls_callbacks_st = type { ptr, ptr, ptr, ptr, ptr, ptr }
%struct.anon = type { i64, [32 x i8], [32 x i8], ptr, ptr, i32, i32, i32, i32, [2 x i8], i32, i32, i32, i32, %struct.anon.0, [64 x i8], i64, [64 x i8], i64, i32, i32, ptr, i64, ptr, i64, i32, i8, i8, i16, ptr, i16 }
%struct.anon.0 = type { [128 x i8], i64, [128 x i8], i64, i64, i32, ptr, ptr, [4 x ptr], [4 x i16], i64, i32, ptr, i64, ptr, i64, ptr, ptr, ptr, i32, i64, ptr, i32, ptr, i64, ptr, i64, ptr, i64, ptr, ptr, ptr, ptr, i64, i64, ptr, ptr, i32, i32, i32, i32 }
%struct.ssl_dane_st = type { ptr, ptr, ptr, ptr, ptr, i32, i32, i32, i64 }
%struct.anon.1 = type { [29 x i8], ptr, ptr, ptr, i32, ptr, i16, i32, %struct.anon.2, i32, i32, i64, ptr, i64, ptr, i64, ptr, i64, ptr, i64, ptr, i64, ptr, ptr, ptr, ptr, ptr, ptr, ptr, i64, ptr, i64, i32, i32, i32, i32, ptr, i64, i32, i8, i32, [4 x i32], i32, i8, i8, i8, i8 }
%struct.anon.2 = type { ptr, ptr, ptr, i64 }
%struct.srp_ctx_st = type { ptr, ptr, ptr, ptr, ptr, ptr, ptr, ptr, ptr, ptr, ptr, ptr, ptr, ptr, i32, i64 }
%struct.record_layer_st = type { ptr, ptr, ptr, ptr, ptr, ptr, ptr, ptr, i64, i32, i64, [4 x i8], i64, i64, i8, ptr, i32, ptr, ptr, ptr, i64, i64, i64, i64, [32 x %struct.tls_record_st] }
%struct.tls_record_st = type { ptr, i32, i8, ptr, ptr, i64, i64, i16, [8 x i8] }
%struct.ssl_method_st = type { i32, i32, i64, ptr, ptr, ptr, ptr, ptr, ptr, ptr, ptr, ptr, ptr, ptr, ptr, ptr, ptr, ptr, ptr, ptr, ptr, ptr, ptr, ptr, ptr, ptr, ptr, ptr, ptr, ptr, ptr, ptr }
%struct.ssl3_enc_method = type { ptr, ptr, ptr, ptr, ptr, i64, ptr, i64, ptr, ptr, i32, ptr, ptr, ptr }

; Function Attrs: nounwind uwtable
define i32 @ossl_statem_client_pre_work(ptr noundef %0, i32 noundef %1) #0 {
  %3 = alloca i32, align 4
  %4 = alloca ptr, align 8
  %5 = alloca i32, align 4
  %6 = alloca ptr, align 8
  %7 = alloca i32, align 4
  store ptr %0, ptr %4, align 8, !tbaa !3
  store i32 %1, ptr %5, align 4, !tbaa !8
  call void @llvm.lifetime.start.p0(i64 8, ptr %6) #8
  %8 = load ptr, ptr %4, align 8, !tbaa !3
  %9 = getelementptr inbounds nuw %struct.ssl_connection_st, ptr %8, i32 0, i32 14
  store ptr %9, ptr %6, align 8, !tbaa !10
  %10 = load ptr, ptr %6, align 8, !tbaa !10
  %11 = getelementptr inbounds nuw %struct.ossl_statem_st, ptr %10, i32 0, i32 5
  %12 = load i32, ptr %11, align 4, !tbaa !79
  switch i32 %12, label %13 [
    i32 13, label %14
    i32 18, label %47
    i32 51, label %68
    i32 50, label %80
    i32 1, label %84
  ]

13:                                               ; preds = %2
  br label %88

14:                                               ; preds = %2
  %15 = load ptr, ptr %4, align 8, !tbaa !3
  %16 = getelementptr inbounds nuw %struct.ssl_connection_st, ptr %15, i32 0, i32 11
  store i32 0, ptr %16, align 4, !tbaa !106
  %17 = load ptr, ptr %4, align 8, !tbaa !3
  %18 = getelementptr inbounds nuw %struct.ssl_connection_st, ptr %17, i32 0, i32 0
  %19 = getelementptr inbounds nuw %struct.ssl_st, ptr %18, i32 0, i32 3
  %20 = load ptr, ptr %19, align 8, !tbaa !12
  %21 = getelementptr inbounds nuw %struct.ssl_method_st, ptr %20, i32 0, i32 28
  %22 = load ptr, ptr %21, align 8, !tbaa !73
  %23 = getelementptr inbounds nuw %struct.ssl3_enc_method, ptr %22, i32 0, i32 10
  %24 = load i32, ptr %23, align 8, !tbaa !76
  %25 = and i32 %24, 8
  %26 = icmp ne i32 %25, 0
  br i1 %26, label %27, label %33

27:                                               ; preds = %14
  %28 = load ptr, ptr %4, align 8, !tbaa !3
  %29 = call i32 @ssl3_init_finished_mac(ptr noundef %28)
  %30 = icmp ne i32 %29, 0
  br i1 %30, label %32, label %31

31:                                               ; preds = %27
  store i32 0, ptr %3, align 4
  store i32 1, ptr %7, align 4
  br label %89

32:                                               ; preds = %27
  br label %46

33:                                               ; preds = %14
  %34 = load ptr, ptr %4, align 8, !tbaa !3
  %35 = getelementptr inbounds nuw %struct.ssl_connection_st, ptr %34, i32 0, i32 84
  %36 = getelementptr inbounds nuw %struct.anon.1, ptr %35, i32 0, i32 34
  %37 = load i32, ptr %36, align 8, !tbaa !107
  %38 = icmp eq i32 %37, 1
  br i1 %38, label %39, label %45

39:                                               ; preds = %33
  %40 = load ptr, ptr %4, align 8, !tbaa !3
  %41 = call i32 @ssl_set_new_record_layer(ptr noundef %40, i32 noundef 65536, i32 noundef 1, i32 noundef 0, ptr noundef null, i64 noundef 0, ptr noundef null, i64 noundef 0, ptr noundef null, i64 noundef 0, ptr noundef null, i64 noundef 0, ptr noundef null, i64 noundef 0, i32 noundef 0, ptr noundef null, ptr noundef null, ptr noundef null)
  %42 = icmp ne i32 %41, 0
  br i1 %42, label %44, label %43

43:                                               ; preds = %39
  store i32 0, ptr %3, align 4
  store i32 1, ptr %7, align 4
  br label %89

44:                                               ; preds = %39
  br label %45

45:                                               ; preds = %44, %33
  br label %46

46:                                               ; preds = %45, %32
  br label %88

47:                                               ; preds = %2
  %48 = load ptr, ptr %4, align 8, !tbaa !3
  %49 = getelementptr inbounds nuw %struct.ssl_connection_st, ptr %48, i32 0, i32 0
  %50 = getelementptr inbounds nuw %struct.ssl_st, ptr %49, i32 0, i32 3
  %51 = load ptr, ptr %50, align 8, !tbaa !12
  %52 = getelementptr inbounds nuw %struct.ssl_method_st, ptr %51, i32 0, i32 28
  %53 = load ptr, ptr %52, align 8, !tbaa !73
  %54 = getelementptr inbounds nuw %struct.ssl3_enc_method, ptr %53, i32 0, i32 10
  %55 = load i32, ptr %54, align 8, !tbaa !76
  %56 = and i32 %55, 8
  %57 = icmp ne i32 %56, 0
  br i1 %57, label %58, label %67

58:                                               ; preds = %47
  %59 = load ptr, ptr %4, align 8, !tbaa !3
  %60 = getelementptr inbounds nuw %struct.ssl_connection_st, ptr %59, i32 0, i32 28
  %61 = load i32, ptr %60, align 8, !tbaa !80
  %62 = icmp ne i32 %61, 0
  br i1 %62, label %63, label %66

63:                                               ; preds = %58
  %64 = load ptr, ptr %6, align 8, !tbaa !10
  %65 = getelementptr inbounds nuw %struct.ossl_statem_st, ptr %64, i32 0, i32 12
  store i32 0, ptr %65, align 8, !tbaa !109
  br label %66

66:                                               ; preds = %63, %58
  br label %67

67:                                               ; preds = %66, %47
  br label %88

68:                                               ; preds = %2
  %69 = load ptr, ptr %4, align 8, !tbaa !3
  %70 = getelementptr inbounds nuw %struct.ssl_connection_st, ptr %69, i32 0, i32 15
  %71 = load i32, ptr %70, align 8, !tbaa !100
  %72 = icmp eq i32 %71, 7
  br i1 %72, label %78, label %73

73:                                               ; preds = %68
  %74 = load ptr, ptr %4, align 8, !tbaa !3
  %75 = getelementptr inbounds nuw %struct.ssl_connection_st, ptr %74, i32 0, i32 15
  %76 = load i32, ptr %75, align 8, !tbaa !100
  %77 = icmp eq i32 %76, 0
  br i1 %77, label %78, label %79

78:                                               ; preds = %73, %68
  store i32 2, ptr %3, align 4
  store i32 1, ptr %7, align 4
  br label %89

79:                                               ; preds = %73
  br label %80

80:                                               ; preds = %2, %79
  %81 = load ptr, ptr %4, align 8, !tbaa !3
  %82 = load i32, ptr %5, align 4, !tbaa !8
  %83 = call i32 @tls_finish_handshake(ptr noundef %81, i32 noundef %82, i32 noundef 0, i32 noundef 1)
  store i32 %83, ptr %3, align 4
  store i32 1, ptr %7, align 4
  br label %89

84:                                               ; preds = %2
  %85 = load ptr, ptr %4, align 8, !tbaa !3
  %86 = load i32, ptr %5, align 4, !tbaa !8
  %87 = call i32 @tls_finish_handshake(ptr noundef %85, i32 noundef %86, i32 noundef 1, i32 noundef 1)
  store i32 %87, ptr %3, align 4
  store i32 1, ptr %7, align 4
  br label %89

88:                                               ; preds = %67, %46, %13
  store i32 2, ptr %3, align 4
  store i32 1, ptr %7, align 4
  br label %89

89:                                               ; preds = %88, %84, %80, %78, %43, %31
  call void @llvm.lifetime.end.p0(i64 8, ptr %6) #8
  %90 = load i32, ptr %3, align 4
  ret i32 %90
}