; Function Attrs: nounwind uwtable
define i32 @ossl_statem_client_pre_work(ptr noundef %0, i32 noundef %1) local_unnamed_addr #0 {
  %3 = getelementptr inbounds nuw i8, ptr %0, i64 172
  %4 = load i32, ptr %3, align 4, !tbaa !75
  switch i32 %4, label %42 [
    i32 13, label %5
    i32 18, label %22
    i32 51, label %35
    i32 50, label %38
    i32 1, label %40
  ]

5:                                                ; preds = %2
  %6 = getelementptr inbounds nuw i8, ptr %0, i64 132
  store i32 0, ptr %6, align 4, !tbaa !95
  %7 = getelementptr inbounds nuw i8, ptr %0, i64 24
  %8 = load ptr, ptr %7, align 8, !tbaa !3
  %9 = getelementptr inbounds nuw i8, ptr %8, i64 216
  %10 = load ptr, ptr %9, align 8, !tbaa !69
  %11 = getelementptr inbounds nuw i8, ptr %10, i64 80
  %12 = load i32, ptr %11, align 8, !tbaa !72
  %13 = and i32 %12, 8
  %.not18 = icmp eq i32 %13, 0
  br i1 %.not18, label %16, label %14

14:                                               ; preds = %5
  %15 = tail call i32 @ssl3_init_finished_mac(ptr noundef nonnull %0) #8
  %.not20 = icmp eq i32 %15, 0
  br i1 %.not20, label %43, label %42

16:                                               ; preds = %5
  %17 = getelementptr inbounds nuw i8, ptr %0, i64 2840
  %18 = load i32, ptr %17, align 8, !tbaa !102
  %19 = icmp eq i32 %18, 1
  br i1 %19, label %20, label %42

20:                                               ; preds = %16
  %21 = tail call i32 @ssl_set_new_record_layer(ptr noundef nonnull %0, i32 noundef 65536, i32 noundef 1, i32 noundef 0, ptr noundef null, i64 noundef 0, ptr noundef null, i64 noundef 0, ptr noundef null, i64 noundef 0, ptr noundef null, i64 noundef 0, ptr noundef null, i64 noundef 0, i32 noundef 0, ptr noundef null, ptr noundef null, ptr noundef null) #8
  %.not19 = icmp eq i32 %21, 0
  br i1 %.not19, label %43, label %42

22:                                               ; preds = %2
  %23 = getelementptr inbounds nuw i8, ptr %0, i64 24
  %24 = load ptr, ptr %23, align 8, !tbaa !3
  %25 = getelementptr inbounds nuw i8, ptr %24, i64 216
  %26 = load ptr, ptr %25, align 8, !tbaa !69
  %27 = getelementptr inbounds nuw i8, ptr %26, i64 80
  %28 = load i32, ptr %27, align 8, !tbaa !72
  %29 = and i32 %28, 8
  %.not = icmp eq i32 %29, 0
  br i1 %.not, label %42, label %30

30:                                               ; preds = %22
  %31 = getelementptr inbounds nuw i8, ptr %0, i64 1288
  %32 = load i32, ptr %31, align 8, !tbaa !76
  %.not17 = icmp eq i32 %32, 0
  br i1 %.not17, label %42, label %33

33:                                               ; preds = %30
  %34 = getelementptr inbounds nuw i8, ptr %0, i64 200
  store i32 0, ptr %34, align 8, !tbaa !106
  br label %42

35:                                               ; preds = %2
  %36 = getelementptr inbounds nuw i8, ptr %0, i64 240
  %37 = load i32, ptr %36, align 8, !tbaa !97
  switch i32 %37, label %38 [
    i32 7, label %43
    i32 0, label %43
  ]

38:                                               ; preds = %35, %2
  %39 = tail call i32 @tls_finish_handshake(ptr noundef nonnull %0, i32 noundef %1, i32 noundef 0, i32 noundef 1) #8
  br label %43

40:                                               ; preds = %2
  %41 = tail call i32 @tls_finish_handshake(ptr noundef nonnull %0, i32 noundef %1, i32 noundef 1, i32 noundef 1) #8
  br label %43

42:                                               ; preds = %22, %33, %30, %14, %20, %16, %2
  br label %43

43:                                               ; preds = %35, %35, %20, %14, %42, %40, %38
  %.0 = phi i32 [ 2, %42 ], [ %41, %40 ], [ %39, %38 ], [ 0, %14 ], [ 0, %20 ], [ 2, %35 ], [ 2, %35 ]
  ret i32 %.0
}